target datalayout = "e-m:e-p270:32:32-p271:32:32-p272:64:64-i64:64-i128:128-f80:128-n8:16:32:64-S128"
target triple = "x86_64-pc-linux-gnu"

%struct.nstime_t = type { i64, i32 }
%struct._h225_packet_info = type { i32, i32, i32, i32, i32, %struct._e_guid_t, i8, i8, %struct.nstime_t, i8, i8, i8, i32, i16, [129 x i8], i8, [50 x i8] }
%struct._e_guid_t = type { i32, i16, i16, [8 x i8] }
%struct._rtd_data_t = type { %struct._rtd_stat_table, ptr }
%struct._rtd_stat_table = type { ptr, i32, ptr }
%struct._rtd_timestat = type { i32, ptr, i32, i32, i32, i32 }
%struct._timestat_t = type { i32, i32, i32, %struct.nstime_t, %struct.nstime_t, %struct.nstime_t, double }

; Function Attrs: null_pointer_is_valid sspstrong uwtable
define internal i32 @h225rassrt_packet(ptr noundef %0, ptr noundef %1, ptr noundef %2, ptr noundef %3, i32 noundef %4) #0 {
  %6 = alloca i32, align 4
  %7 = alloca ptr, align 8
  %8 = alloca ptr, align 8
  %9 = alloca ptr, align 8
  %10 = alloca ptr, align 8
  %11 = alloca i32, align 4
  %12 = alloca ptr, align 8
  %13 = alloca ptr, align 8
  %14 = alloca ptr, align 8
  %15 = alloca i32, align 4
  %16 = alloca i32, align 4
  %17 = alloca i32, align 4
  store ptr %0, ptr %7, align 8
  store ptr %1, ptr %8, align 8
  store ptr %2, ptr %9, align 8
  store ptr %3, ptr %10, align 8
  store i32 %4, ptr %11, align 4
  call void @llvm.lifetime.start.p0(i64 8, ptr %12) #11
  %18 = load ptr, ptr %7, align 8
  store ptr %18, ptr %12, align 8
  call void @llvm.lifetime.start.p0(i64 8, ptr %13) #11
  %19 = load ptr, ptr %12, align 8
  %20 = getelementptr inbounds nuw %struct._rtd_data_t, ptr %19, i32 0, i32 0
  store ptr %20, ptr %13, align 8
  call void @llvm.lifetime.start.p0(i64 8, ptr %14) #11
  %21 = load ptr, ptr %10, align 8
  store ptr %21, ptr %14, align 8
  call void @llvm.lifetime.start.p0(i64 4, ptr %15) #11
  store i32 3, ptr %15, align 4
  call void @llvm.lifetime.start.p0(i64 4, ptr %16) #11
  store i32 7, ptr %16, align 4
  %22 = load ptr, ptr %14, align 8
  %23 = getelementptr inbounds nuw %struct._h225_packet_info, ptr %22, i32 0, i32 0
  %24 = load i32, ptr %23, align 8
  %25 = icmp ne i32 %24, 0
  br i1 %25, label %31, label %26

26:                                               ; preds = %5
  %27 = load ptr, ptr %14, align 8
  %28 = getelementptr inbounds nuw %struct._h225_packet_info, ptr %27, i32 0, i32 2
  %29 = load i32, ptr %28, align 8
  %30 = icmp eq i32 %29, -1
  br i1 %30, label %31, label %32

31:                                               ; preds = %26, %5
  store i32 0, ptr %6, align 4
  store i32 1, ptr %17, align 4
  br label %131

32:                                               ; preds = %26
  %33 = load ptr, ptr %14, align 8
  %34 = getelementptr inbounds nuw %struct._h225_packet_info, ptr %33, i32 0, i32 2
  %35 = load i32, ptr %34, align 8
  %36 = icmp slt i32 %35, 21
  br i1 %36, label %37, label %46

37:                                               ; preds = %32
  %38 = load ptr, ptr %14, align 8
  %39 = getelementptr inbounds nuw %struct._h225_packet_info, ptr %38, i32 0, i32 2
  %40 = load i32, ptr %39, align 8
  %41 = sdiv i32 %40, 3
  store i32 %41, ptr %16, align 4
  %42 = load ptr, ptr %14, align 8
  %43 = getelementptr inbounds nuw %struct._h225_packet_info, ptr %42, i32 0, i32 2
  %44 = load i32, ptr %43, align 8
  %45 = srem i32 %44, 3
  store i32 %45, ptr %15, align 4
  br label %47

46:                                               ; preds = %32
  store i32 0, ptr %6, align 4
  store i32 1, ptr %17, align 4
  br label %131

47:                                               ; preds = %37
  %48 = load i32, ptr %15, align 4
  switch i32 %48, label %129 [
    i32 0, label %49
    i32 1, label %75
    i32 2, label %75
  ]

49:                                               ; preds = %47
  %50 = load ptr, ptr %14, align 8
  %51 = getelementptr inbounds nuw %struct._h225_packet_info, ptr %50, i32 0, i32 6
  %52 = load i8, ptr %51, align 4, !range !23, !noundef !24
  %53 = trunc i8 %52 to i1
  br i1 %53, label %54, label %64

54:                                               ; preds = %49
  %55 = load ptr, ptr %13, align 8
  %56 = getelementptr inbounds nuw %struct._rtd_stat_table, ptr %55, i32 0, i32 2
  %57 = load ptr, ptr %56, align 8
  %58 = load i32, ptr %16, align 4
  %59 = zext i32 %58 to i64
  %60 = getelementptr %struct._rtd_timestat, ptr %57, i64 %59
  %61 = getelementptr inbounds nuw %struct._rtd_timestat, ptr %60, i32 0, i32 4
  %62 = load i32, ptr %61, align 8
  %63 = add i32 %62, 1
  store i32 %63, ptr %61, align 8
  br label %74

64:                                               ; preds = %49
  %65 = load ptr, ptr %13, align 8
  %66 = getelementptr inbounds nuw %struct._rtd_stat_table, ptr %65, i32 0, i32 2
  %67 = load ptr, ptr %66, align 8
  %68 = load i32, ptr %16, align 4
  %69 = zext i32 %68 to i64
  %70 = getelementptr %struct._rtd_timestat, ptr %67, i64 %69
  %71 = getelementptr inbounds nuw %struct._rtd_timestat, ptr %70, i32 0, i32 2
  %72 = load i32, ptr %71, align 8
  %73 = add i32 %72, 1
  store i32 %73, ptr %71, align 8
  br label %74

74:                                               ; preds = %64, %54
  br label %130

75:                                               ; preds = %47, %47
  %76 = load ptr, ptr %14, align 8
  %77 = getelementptr inbounds nuw %struct._h225_packet_info, ptr %76, i32 0, i32 6
  %78 = load i8, ptr %77, align 4, !range !23, !noundef !24
  %79 = trunc i8 %78 to i1
  br i1 %79, label %80, label %90

80:                                               ; preds = %75
  %81 = load ptr, ptr %13, align 8
  %82 = getelementptr inbounds nuw %struct._rtd_stat_table, ptr %81, i32 0, i32 2
  %83 = load ptr, ptr %82, align 8
  %84 = load i32, ptr %16, align 4
  %85 = zext i32 %84 to i64
  %86 = getelementptr %struct._rtd_timestat, ptr %83, i64 %85
  %87 = getelementptr inbounds nuw %struct._rtd_timestat, ptr %86, i32 0, i32 5
  %88 = load i32, ptr %87, align 4
  %89 = add i32 %88, 1
  store i32 %89, ptr %87, align 4
  br label %128

90:                                               ; preds = %75
  %91 = load ptr, ptr %14, align 8
  %92 = getelementptr inbounds nuw %struct._h225_packet_info, ptr %91, i32 0, i32 7
  %93 = load i8, ptr %92, align 1, !range !23, !noundef !24
  %94 = trunc i8 %93 to i1
  br i1 %94, label %105, label %95

95:                                               ; preds = %90
  %96 = load ptr, ptr %13, align 8
  %97 = getelementptr inbounds nuw %struct._rtd_stat_table, ptr %96, i32 0, i32 2
  %98 = load ptr, ptr %97, align 8
  %99 = load i32, ptr %16, align 4
  %100 = zext i32 %99 to i64
  %101 = getelementptr %struct._rtd_timestat, ptr %98, i64 %100
  %102 = getelementptr inbounds nuw %struct._rtd_timestat, ptr %101, i32 0, i32 3
  %103 = load i32, ptr %102, align 4
  %104 = add i32 %103, 1
  store i32 %104, ptr %102, align 4
  br label %127

105:                                              ; preds = %90
  %106 = load ptr, ptr %13, align 8
  %107 = getelementptr inbounds nuw %struct._rtd_stat_table, ptr %106, i32 0, i32 2
  %108 = load ptr, ptr %107, align 8
  %109 = load i32, ptr %16, align 4
  %110 = zext i32 %109 to i64
  %111 = getelementptr %struct._rtd_timestat, ptr %108, i64 %110
  %112 = getelementptr inbounds nuw %struct._rtd_timestat, ptr %111, i32 0, i32 2
  %113 = load i32, ptr %112, align 8
  %114 = add i32 %113, -1
  store i32 %114, ptr %112, align 8
  %115 = load ptr, ptr %13, align 8
  %116 = getelementptr inbounds nuw %struct._rtd_stat_table, ptr %115, i32 0, i32 2
  %117 = load ptr, ptr %116, align 8
  %118 = load i32, ptr %16, align 4
  %119 = zext i32 %118 to i64
  %120 = getelementptr %struct._rtd_timestat, ptr %117, i64 %119
  %121 = getelementptr inbounds nuw %struct._rtd_timestat, ptr %120, i32 0, i32 1
  %122 = load ptr, ptr %121, align 8
  %123 = getelementptr %struct._timestat_t, ptr %122, i64 0
  %124 = load ptr, ptr %14, align 8
  %125 = getelementptr inbounds nuw %struct._h225_packet_info, ptr %124, i32 0, i32 8
  %126 = load ptr, ptr %8, align 8
  call void @time_stat_update(ptr noundef %123, ptr noundef %125, ptr noundef %126)
  br label %127

127:                                              ; preds = %105, %95
  br label %128

128:                                              ; preds = %127, %80
  br label %130

129:                                              ; preds = %47
  store i32 0, ptr %6, align 4
  store i32 1, ptr %17, align 4
  br label %131

130:                                              ; preds = %128, %74
  store i32 1, ptr %6, align 4
  store i32 1, ptr %17, align 4
  br label %131

131:                                              ; preds = %130, %129, %46, %31
  call void @llvm.lifetime.end.p0(i64 4, ptr %16) #11
  call void @llvm.lifetime.end.p0(i64 4, ptr %15) #11
  call void @llvm.lifetime.end.p0(i64 8, ptr %14) #11
  call void @llvm.lifetime.end.p0(i64 8, ptr %13) #11
  call void @llvm.lifetime.end.p0(i64 8, ptr %12) #11
  %132 = load i32, ptr %6, align 4
  ret i32 %132
}