; Function Attrs: null_pointer_is_valid sspstrong uwtable
define internal range(i32 0, 2) i32 @h225rassrt_packet(ptr noundef readonly captures(none) %0, ptr noundef %1, ptr readnone captures(none) %2, ptr noundef %3, i32 %4) #0 {
  %6 = load i32, ptr %3, align 8
  %.not = icmp eq i32 %6, 0
  br i1 %.not, label %7, label %60

7:                                                ; preds = %5
  %8 = getelementptr inbounds nuw i8, ptr %3, i64 8
  %9 = load i32, ptr %8, align 8
  %10 = icmp ne i32 %9, -1
  %11 = icmp slt i32 %9, 21
  %or.cond = and i1 %10, %11
  br i1 %or.cond, label %12, label %60

12:                                               ; preds = %7
  %13 = sdiv i32 %9, 3
  %14 = srem i32 %9, 3
  switch i32 %14, label %60 [
    i32 0, label %15
    i32 1, label %30
    i32 2, label %30
  ]

15:                                               ; preds = %12
  %16 = getelementptr inbounds nuw i8, ptr %3, i64 36
  %17 = load i8, ptr %16, align 4, !range !23, !noundef !24
  %18 = trunc nuw i8 %17 to i1
  %19 = getelementptr inbounds nuw i8, ptr %0, i64 16
  %20 = load ptr, ptr %19, align 8
  %21 = zext i32 %13 to i64
  br i1 %18, label %22, label %26

22:                                               ; preds = %15
  %23 = getelementptr %struct._rtd_timestat, ptr %20, i64 %21, i32 4
  %24 = load i32, ptr %23, align 8
  %25 = add i32 %24, 1
  store i32 %25, ptr %23, align 8
  br label %60

26:                                               ; preds = %15
  %27 = getelementptr %struct._rtd_timestat, ptr %20, i64 %21, i32 2
  %28 = load i32, ptr %27, align 8
  %29 = add i32 %28, 1
  store i32 %29, ptr %27, align 8
  br label %60

30:                                               ; preds = %12, %12
  %31 = getelementptr inbounds nuw i8, ptr %3, i64 36
  %32 = load i8, ptr %31, align 4, !range !23, !noundef !24
  %33 = trunc nuw i8 %32 to i1
  br i1 %33, label %34, label %41

34:                                               ; preds = %30
  %35 = getelementptr inbounds nuw i8, ptr %0, i64 16
  %36 = load ptr, ptr %35, align 8
  %37 = zext i32 %13 to i64
  %38 = getelementptr %struct._rtd_timestat, ptr %36, i64 %37, i32 5
  %39 = load i32, ptr %38, align 4
  %40 = add i32 %39, 1
  store i32 %40, ptr %38, align 4
  br label %60

41:                                               ; preds = %30
  %42 = getelementptr inbounds nuw i8, ptr %3, i64 37
  %43 = load i8, ptr %42, align 1, !range !23, !noundef !24
  %44 = trunc nuw i8 %43 to i1
  %45 = getelementptr inbounds nuw i8, ptr %0, i64 16
  %46 = load ptr, ptr %45, align 8
  %47 = zext i32 %13 to i64
  br i1 %44, label %52, label %48

48:                                               ; preds = %41
  %49 = getelementptr %struct._rtd_timestat, ptr %46, i64 %47, i32 3
  %50 = load i32, ptr %49, align 4
  %51 = add i32 %50, 1
  store i32 %51, ptr %49, align 4
  br label %60

52:                                               ; preds = %41
  %53 = getelementptr %struct._rtd_timestat, ptr %46, i64 %47, i32 2
  %54 = load i32, ptr %53, align 8
  %55 = add i32 %54, -1
  store i32 %55, ptr %53, align 8
  %56 = load ptr, ptr %45, align 8
  %57 = getelementptr %struct._rtd_timestat, ptr %56, i64 %47, i32 1
  %58 = load ptr, ptr %57, align 8
  %59 = getelementptr inbounds nuw i8, ptr %3, i64 40
  tail call void @time_stat_update(ptr noundef %58, ptr noundef nonnull %59, ptr noundef %1)
  br label %60

60:                                               ; preds = %26, %22, %48, %52, %34, %12, %5, %7
  %.0 = phi i32 [ 0, %7 ], [ 0, %5 ], [ 0, %12 ], [ 1, %34 ], [ 1, %52 ], [ 1, %48 ], [ 1, %22 ], [ 1, %26 ]
  ret i32 %.0
}